; Function Attrs: mustprogress uwtable
define i32 @u_sprintf_77(ptr noundef %0, ptr noundef %1, ...) local_unnamed_addr #0 {
  %3 = alloca [1 x %struct.__va_list_tag], align 16
  call void @llvm.lifetime.start.p0(i64 24, ptr nonnull %3) #7
  call void @llvm.va_start.p0(ptr nonnull %3)
  %4 = call i32 @u_vsnprintf_77(ptr noundef %0, i32 noundef 2147483647, ptr noundef %1, ptr noundef nonnull %3)
  call void @llvm.va_end.p0(ptr nonnull %3)
  call void @llvm.lifetime.end.p0(i64 24, ptr nonnull %3) #7
  ret i32 %4
}